target datalayout = "e-m:e-p270:32:32-p271:32:32-p272:64:64-i64:64-i128:128-f80:128-n8:16:32:64-S128"
target triple = "x86_64-pc-linux-gnu"

%struct.reassembly_table = type { ptr, ptr, ptr, ptr, ptr }
%struct.reassembly_table_functions = type { ptr, ptr, ptr, ptr, ptr, ptr }

@eosmb2_take_name_as_fid = hidden global i8 0, align 1
@.str.1351 = private unnamed_addr constant [47 x i8] c"SMB2 (Server Message Block Protocol version 2)\00", align 1
@.str.1352 = private unnamed_addr constant [5 x i8] c"SMB2\00", align 1
@.str.1353 = private unnamed_addr constant [5 x i8] c"smb2\00", align 1
@proto_smb2 = internal global i32 0, align 4
@.str.1354 = private unnamed_addr constant [24 x i8] c"eosmb2_take_name_as_fid\00", align 1
@.str.1355 = private unnamed_addr constant [64 x i8] c"Use the full file name as File ID when exporting an SMB2 object\00", align 1
@.str.1356 = private unnamed_addr constant [93 x i8] c"Whether the export object functionality will take the full path file name as file identifier\00", align 1
@.str.1357 = private unnamed_addr constant [16 x i8] c"pipe_reassembly\00", align 1
@.str.1358 = private unnamed_addr constant [33 x i8] c"Reassemble Named Pipes over SMB2\00", align 1
@.str.1359 = private unnamed_addr constant [71 x i8] c"Whether the dissector should reassemble Named Pipes over SMB2 commands\00", align 1
@smb2_pipe_reassembly = internal global i8 1, align 1
@.str.1360 = private unnamed_addr constant [18 x i8] c"verify_signatures\00", align 1
@.str.1361 = private unnamed_addr constant [23 x i8] c"Verify SMB2 Signatures\00", align 1
@.str.1362 = private unnamed_addr constant [59 x i8] c"Whether the dissector should try to verify SMB2 signatures\00", align 1
@smb2_verify_signatures = internal global i8 0, align 1
@.str.1363 = private unnamed_addr constant [41 x i8] c"Secret session key to use for decryption\00", align 1
@.str.1364 = private unnamed_addr constant [17 x i8] c"smb2_seskey_list\00", align 1
@seskey_list = internal global ptr null, align 8
@num_seskey_list = internal global i32 0, align 4
@.str.1365 = private unnamed_addr constant [12 x i8] c"seskey_list\00", align 1
@.str.1366 = private unnamed_addr constant [35 x i8] c"Secret session keys for decryption\00", align 1
@.str.1367 = private unnamed_addr constant [72 x i8] c"A table of Session ID to Session keys mappings used to decrypt traffic.\00", align 1
@.str.1368 = private unnamed_addr constant [24 x i8] c"smb2_pipe_subdissectors\00", align 1
@.str.1369 = private unnamed_addr constant [15 x i8] c"SMB2 Pipe data\00", align 1
@smb2_pipe_subdissector_list = internal global ptr null, align 8
@smb2_pipe_reassembly_table = internal global %struct.reassembly_table zeroinitializer, align 8
@addresses_reassembly_table_functions = external constant %struct.reassembly_table_functions, align 8
@smb2_tap = internal global i32 0, align 4
@.str.1370 = private unnamed_addr constant [7 x i8] c"smb_eo\00", align 1
@smb2_eo_tap = internal global i32 0, align 4
@smb2_sessions = internal global ptr null, align 8

; Function Attrs: null_pointer_is_valid sspstrong uwtable
define hidden void @proto_register_smb2() #0 {
  %1 = alloca ptr, align 8
  %2 = alloca ptr, align 8
  %3 = alloca ptr, align 8
  call void @llvm.lifetime.start.p0(i64 8, ptr %1) #13
  call void @llvm.lifetime.start.p0(i64 8, ptr %2) #13
  call void @llvm.lifetime.start.p0(i64 8, ptr %3) #13
  %4 = call i32 @proto_register_protocol(ptr noundef @.str.1351, ptr noundef @.str.1352, ptr noundef @.str.1353)
  store i32 %4, ptr @proto_smb2, align 4
  call void @proto_register_subtree_array(ptr noundef @proto_register_smb2.ett, i32 noundef 119)
  %5 = load i32, ptr @proto_smb2, align 4
  call void @proto_register_field_array(i32 noundef %5, ptr noundef @proto_register_smb2.hf, i32 noundef 588)
  %6 = load i32, ptr @proto_smb2, align 4
  %7 = call ptr @expert_register_protocol(i32 noundef %6)
  store ptr %7, ptr %2, align 8
  %8 = load ptr, ptr %2, align 8
  call void @expert_register_field_array(ptr noundef %8, ptr noundef @proto_register_smb2.ei, i32 noundef 10)
  %9 = load i32, ptr @proto_smb2, align 4
  %10 = call ptr @prefs_register_protocol(i32 noundef %9, ptr noundef null)
  store ptr %10, ptr %1, align 8
  %11 = load ptr, ptr %1, align 8
  call void @prefs_register_bool_preference(ptr noundef %11, ptr noundef @.str.1354, ptr noundef @.str.1355, ptr noundef @.str.1356, ptr noundef @eosmb2_take_name_as_fid)
  %12 = load ptr, ptr %1, align 8
  call void @prefs_register_bool_preference(ptr noundef %12, ptr noundef @.str.1357, ptr noundef @.str.1358, ptr noundef @.str.1359, ptr noundef @smb2_pipe_reassembly)
  %13 = load ptr, ptr %1, align 8
  call void @prefs_register_bool_preference(ptr noundef %13, ptr noundef @.str.1360, ptr noundef @.str.1361, ptr noundef @.str.1362, ptr noundef @smb2_verify_signatures)
  %14 = call ptr @uat_new(ptr noundef @.str.1363, i64 noundef 64, ptr noundef @.str.1364, i1 noundef zeroext true, ptr noundef @seskey_list, ptr noundef @num_seskey_list, i32 noundef 3, ptr noundef null, ptr noundef @seskey_list_copy_cb, ptr noundef @seskey_list_update_cb, ptr noundef @seskey_list_free_cb, ptr noundef null, ptr noundef null, ptr noundef @proto_register_smb2.seskey_uat_fields)
  store ptr %14, ptr %3, align 8
  %15 = load ptr, ptr %1, align 8
  %16 = load ptr, ptr %3, align 8
  call void @prefs_register_uat_preference(ptr noundef %15, ptr noundef @.str.1365, ptr noundef @.str.1366, ptr noundef @.str.1367, ptr noundef %16)
  %17 = load i32, ptr @proto_smb2, align 4
  %18 = call ptr @register_heur_dissector_list_with_description(ptr noundef @.str.1368, ptr noundef @.str.1369, i32 noundef %17)
  store ptr %18, ptr @smb2_pipe_subdissector_list, align 8
  call void @reassembly_table_register(ptr noundef @smb2_pipe_reassembly_table, ptr noundef @addresses_reassembly_table_functions)
  %19 = call i32 @register_tap(ptr noundef @.str.1353)
  store i32 %19, ptr @smb2_tap, align 4
  %20 = call i32 @register_tap(ptr noundef @.str.1370)
  store i32 %20, ptr @smb2_eo_tap, align 4
  %21 = load i32, ptr @proto_smb2, align 4
  call void @register_srt_table(i32 noundef %21, ptr noundef null, i32 noundef 1, ptr noundef @smb2stat_packet, ptr noundef @smb2stat_init, ptr noundef null)
  %22 = call ptr @wmem_epan_scope()
  %23 = call ptr @wmem_file_scope()
  %24 = call noalias ptr @wmem_map_new_autoreset(ptr noundef %22, ptr noundef %23, ptr noundef @smb2_sesid_info_hash, ptr noundef @smb2_sesid_info_equal)
  store ptr %24, ptr @smb2_sessions, align 8
  call void @llvm.lifetime.end.p0(i64 8, ptr %3) #13
  call void @llvm.lifetime.end.p0(i64 8, ptr %2) #13
  call void @llvm.lifetime.end.p0(i64 8, ptr %1) #13
  ret void
}