; Function Attrs: null_pointer_is_valid sspstrong uwtable
define hidden void @proto_register_smb2() local_unnamed_addr #0 {
  %1 = tail call i32 @proto_register_protocol(ptr noundef nonnull @.str.1351, ptr noundef nonnull @.str.1352, ptr noundef nonnull @.str.1353)
  store i32 %1, ptr @proto_smb2, align 4
  tail call void @proto_register_subtree_array(ptr noundef nonnull @proto_register_smb2.ett, i32 noundef 119)
  %2 = load i32, ptr @proto_smb2, align 4
  tail call void @proto_register_field_array(i32 noundef %2, ptr noundef nonnull @proto_register_smb2.hf, i32 noundef 588)
  %3 = load i32, ptr @proto_smb2, align 4
  %4 = tail call ptr @expert_register_protocol(i32 noundef %3)
  tail call void @expert_register_field_array(ptr noundef %4, ptr noundef nonnull @proto_register_smb2.ei, i32 noundef 10)
  %5 = load i32, ptr @proto_smb2, align 4
  %6 = tail call ptr @prefs_register_protocol(i32 noundef %5, ptr noundef null)
  tail call void @prefs_register_bool_preference(ptr noundef %6, ptr noundef nonnull @.str.1354, ptr noundef nonnull @.str.1355, ptr noundef nonnull @.str.1356, ptr noundef nonnull @eosmb2_take_name_as_fid)
  tail call void @prefs_register_bool_preference(ptr noundef %6, ptr noundef nonnull @.str.1357, ptr noundef nonnull @.str.1358, ptr noundef nonnull @.str.1359, ptr noundef nonnull @smb2_pipe_reassembly)
  tail call void @prefs_register_bool_preference(ptr noundef %6, ptr noundef nonnull @.str.1360, ptr noundef nonnull @.str.1361, ptr noundef nonnull @.str.1362, ptr noundef nonnull @smb2_verify_signatures)
  %7 = tail call ptr @uat_new(ptr noundef nonnull @.str.1363, i64 noundef 64, ptr noundef nonnull @.str.1364, i1 noundef zeroext true, ptr noundef nonnull @seskey_list, ptr noundef nonnull @num_seskey_list, i32 noundef 3, ptr noundef null, ptr noundef nonnull @seskey_list_copy_cb, ptr noundef nonnull @seskey_list_update_cb, ptr noundef nonnull @seskey_list_free_cb, ptr noundef null, ptr noundef null, ptr noundef nonnull @proto_register_smb2.seskey_uat_fields)
  tail call void @prefs_register_uat_preference(ptr noundef %6, ptr noundef nonnull @.str.1365, ptr noundef nonnull @.str.1366, ptr noundef nonnull @.str.1367, ptr noundef %7)
  %8 = load i32, ptr @proto_smb2, align 4
  %9 = tail call ptr @register_heur_dissector_list_with_description(ptr noundef nonnull @.str.1368, ptr noundef nonnull @.str.1369, i32 noundef %8)
  store ptr %9, ptr @smb2_pipe_subdissector_list, align 8
  tail call void @reassembly_table_register(ptr noundef nonnull @smb2_pipe_reassembly_table, ptr noundef nonnull @addresses_reassembly_table_functions)
  %10 = tail call i32 @register_tap(ptr noundef nonnull @.str.1353)
  store i32 %10, ptr @smb2_tap, align 4
  %11 = tail call i32 @register_tap(ptr noundef nonnull @.str.1370)
  store i32 %11, ptr @smb2_eo_tap, align 4
  %12 = load i32, ptr @proto_smb2, align 4
  tail call void @register_srt_table(i32 noundef %12, ptr noundef null, i32 noundef 1, ptr noundef nonnull @smb2stat_packet, ptr noundef nonnull @smb2stat_init, ptr noundef null)
  %13 = tail call ptr @wmem_epan_scope()
  %14 = tail call ptr @wmem_file_scope()
  %15 = tail call noalias ptr @wmem_map_new_autoreset(ptr noundef %13, ptr noundef %14, ptr noundef nonnull @smb2_sesid_info_hash, ptr noundef nonnull @smb2_sesid_info_equal)
  store ptr %15, ptr @smb2_sessions, align 8
  ret void
}